ARM GAS  C:\Users\leander\AppData\Local\Temp\ccGLkNf6.s 			page 1


   1              		.cpu cortex-m0
   2              		.fpu softvfp
   3              		.eabi_attribute 20, 1
   4              		.eabi_attribute 21, 1
   5              		.eabi_attribute 23, 3
   6              		.eabi_attribute 24, 1
   7              		.eabi_attribute 25, 1
   8              		.eabi_attribute 26, 1
   9              		.eabi_attribute 30, 1
  10              		.eabi_attribute 34, 0
  11              		.eabi_attribute 18, 4
  12              		.code	16
  13              		.file	"cyfitter_cfg.c"
  14              		.text
  15              	.Ltext0:
  16              		.cfi_sections	.debug_frame
  17              		.section	.text.cfg_write_bytes32,"ax",%progbits
  18              		.align	2
  19              		.code	16
  20              		.thumb_func
  21              		.type	cfg_write_bytes32, %function
  22              	cfg_write_bytes32:
  23              	.LFB5:
  24              		.file 1 ".\\Generated_Source\\PSoC4\\cyfitter_cfg.c"
   1:.\Generated_Source\PSoC4/cyfitter_cfg.c **** /*******************************************************************************
   2:.\Generated_Source\PSoC4/cyfitter_cfg.c **** * File Name: cyfitter_cfg.c
   3:.\Generated_Source\PSoC4/cyfitter_cfg.c **** * 
   4:.\Generated_Source\PSoC4/cyfitter_cfg.c **** * PSoC Creator  3.3 CP1
   5:.\Generated_Source\PSoC4/cyfitter_cfg.c **** *
   6:.\Generated_Source\PSoC4/cyfitter_cfg.c **** * Description:
   7:.\Generated_Source\PSoC4/cyfitter_cfg.c **** * This file contains device initialization code.
   8:.\Generated_Source\PSoC4/cyfitter_cfg.c **** * Except for the user defined sections in CyClockStartupError(), this file should not be modified.
   9:.\Generated_Source\PSoC4/cyfitter_cfg.c **** * This file is automatically generated by PSoC Creator.
  10:.\Generated_Source\PSoC4/cyfitter_cfg.c **** *
  11:.\Generated_Source\PSoC4/cyfitter_cfg.c **** ********************************************************************************
  12:.\Generated_Source\PSoC4/cyfitter_cfg.c **** * Copyright (c) 2007-2015 Cypress Semiconductor.  All rights reserved.
  13:.\Generated_Source\PSoC4/cyfitter_cfg.c **** * You may use this file only in accordance with the license, terms, conditions, 
  14:.\Generated_Source\PSoC4/cyfitter_cfg.c **** * disclaimers, and limitations in the end user license agreement accompanying 
  15:.\Generated_Source\PSoC4/cyfitter_cfg.c **** * the software package with which this file was provided.
  16:.\Generated_Source\PSoC4/cyfitter_cfg.c **** ********************************************************************************/
  17:.\Generated_Source\PSoC4/cyfitter_cfg.c **** 
  18:.\Generated_Source\PSoC4/cyfitter_cfg.c **** #include <string.h>
  19:.\Generated_Source\PSoC4/cyfitter_cfg.c **** #include "cytypes.h"
  20:.\Generated_Source\PSoC4/cyfitter_cfg.c **** #include "cydevice_trm.h"
  21:.\Generated_Source\PSoC4/cyfitter_cfg.c **** #include "cyfitter.h"
  22:.\Generated_Source\PSoC4/cyfitter_cfg.c **** #include "CyLib.h"
  23:.\Generated_Source\PSoC4/cyfitter_cfg.c **** #include "cyfitter_cfg.h"
  24:.\Generated_Source\PSoC4/cyfitter_cfg.c **** 
  25:.\Generated_Source\PSoC4/cyfitter_cfg.c **** 
  26:.\Generated_Source\PSoC4/cyfitter_cfg.c **** #if defined(__GNUC__) || defined(__ARMCC_VERSION)
  27:.\Generated_Source\PSoC4/cyfitter_cfg.c ****     #define CYPACKED 
  28:.\Generated_Source\PSoC4/cyfitter_cfg.c ****     #define CYPACKED_ATTR __attribute__ ((packed))
  29:.\Generated_Source\PSoC4/cyfitter_cfg.c ****     #define CYALIGNED __attribute__ ((aligned))
  30:.\Generated_Source\PSoC4/cyfitter_cfg.c ****     #define CY_CFG_UNUSED __attribute__ ((unused))
  31:.\Generated_Source\PSoC4/cyfitter_cfg.c ****     #define CY_CFG_SECTION __attribute__ ((section(".psocinit")))
  32:.\Generated_Source\PSoC4/cyfitter_cfg.c ****     
  33:.\Generated_Source\PSoC4/cyfitter_cfg.c ****     #if defined(__ARMCC_VERSION)
ARM GAS  C:\Users\leander\AppData\Local\Temp\ccGLkNf6.s 			page 2


  34:.\Generated_Source\PSoC4/cyfitter_cfg.c ****         #define CY_CFG_MEMORY_BARRIER() __memory_changed()
  35:.\Generated_Source\PSoC4/cyfitter_cfg.c ****     #else
  36:.\Generated_Source\PSoC4/cyfitter_cfg.c ****         #define CY_CFG_MEMORY_BARRIER() __sync_synchronize()
  37:.\Generated_Source\PSoC4/cyfitter_cfg.c ****     #endif
  38:.\Generated_Source\PSoC4/cyfitter_cfg.c ****     
  39:.\Generated_Source\PSoC4/cyfitter_cfg.c **** #elif defined(__ICCARM__)
  40:.\Generated_Source\PSoC4/cyfitter_cfg.c ****     #include <intrinsics.h>
  41:.\Generated_Source\PSoC4/cyfitter_cfg.c **** 
  42:.\Generated_Source\PSoC4/cyfitter_cfg.c ****     #define CYPACKED __packed
  43:.\Generated_Source\PSoC4/cyfitter_cfg.c ****     #define CYPACKED_ATTR 
  44:.\Generated_Source\PSoC4/cyfitter_cfg.c ****     #define CYALIGNED _Pragma("data_alignment=4")
  45:.\Generated_Source\PSoC4/cyfitter_cfg.c ****     #define CY_CFG_UNUSED _Pragma("diag_suppress=Pe177")
  46:.\Generated_Source\PSoC4/cyfitter_cfg.c ****     #define CY_CFG_SECTION _Pragma("location=\".psocinit\"")
  47:.\Generated_Source\PSoC4/cyfitter_cfg.c ****     
  48:.\Generated_Source\PSoC4/cyfitter_cfg.c ****     #define CY_CFG_MEMORY_BARRIER() __DMB()
  49:.\Generated_Source\PSoC4/cyfitter_cfg.c ****     
  50:.\Generated_Source\PSoC4/cyfitter_cfg.c **** #else
  51:.\Generated_Source\PSoC4/cyfitter_cfg.c ****     #error Unsupported toolchain
  52:.\Generated_Source\PSoC4/cyfitter_cfg.c **** #endif
  53:.\Generated_Source\PSoC4/cyfitter_cfg.c **** 
  54:.\Generated_Source\PSoC4/cyfitter_cfg.c **** 
  55:.\Generated_Source\PSoC4/cyfitter_cfg.c **** CY_CFG_UNUSED
  56:.\Generated_Source\PSoC4/cyfitter_cfg.c **** static void CYMEMZERO(void *s, size_t n);
  57:.\Generated_Source\PSoC4/cyfitter_cfg.c **** CY_CFG_UNUSED
  58:.\Generated_Source\PSoC4/cyfitter_cfg.c **** static void CYMEMZERO(void *s, size_t n)
  59:.\Generated_Source\PSoC4/cyfitter_cfg.c **** {
  60:.\Generated_Source\PSoC4/cyfitter_cfg.c **** 	(void)memset(s, 0, n);
  61:.\Generated_Source\PSoC4/cyfitter_cfg.c **** }
  62:.\Generated_Source\PSoC4/cyfitter_cfg.c **** CY_CFG_UNUSED
  63:.\Generated_Source\PSoC4/cyfitter_cfg.c **** static void CYCONFIGCPY(void *dest, const void *src, size_t n);
  64:.\Generated_Source\PSoC4/cyfitter_cfg.c **** CY_CFG_UNUSED
  65:.\Generated_Source\PSoC4/cyfitter_cfg.c **** static void CYCONFIGCPY(void *dest, const void *src, size_t n)
  66:.\Generated_Source\PSoC4/cyfitter_cfg.c **** {
  67:.\Generated_Source\PSoC4/cyfitter_cfg.c **** 	(void)memcpy(dest, src, n);
  68:.\Generated_Source\PSoC4/cyfitter_cfg.c **** }
  69:.\Generated_Source\PSoC4/cyfitter_cfg.c **** CY_CFG_UNUSED
  70:.\Generated_Source\PSoC4/cyfitter_cfg.c **** static void CYCONFIGCPYCODE(void *dest, const void *src, size_t n);
  71:.\Generated_Source\PSoC4/cyfitter_cfg.c **** CY_CFG_UNUSED
  72:.\Generated_Source\PSoC4/cyfitter_cfg.c **** static void CYCONFIGCPYCODE(void *dest, const void *src, size_t n)
  73:.\Generated_Source\PSoC4/cyfitter_cfg.c **** {
  74:.\Generated_Source\PSoC4/cyfitter_cfg.c **** 	(void)memcpy(dest, src, n);
  75:.\Generated_Source\PSoC4/cyfitter_cfg.c **** }
  76:.\Generated_Source\PSoC4/cyfitter_cfg.c **** 
  77:.\Generated_Source\PSoC4/cyfitter_cfg.c **** 
  78:.\Generated_Source\PSoC4/cyfitter_cfg.c **** 
  79:.\Generated_Source\PSoC4/cyfitter_cfg.c **** /* Clock startup error codes                                                   */
  80:.\Generated_Source\PSoC4/cyfitter_cfg.c **** #define CYCLOCKSTART_NO_ERROR    0u
  81:.\Generated_Source\PSoC4/cyfitter_cfg.c **** #define CYCLOCKSTART_XTAL_ERROR  1u
  82:.\Generated_Source\PSoC4/cyfitter_cfg.c **** #define CYCLOCKSTART_32KHZ_ERROR 2u
  83:.\Generated_Source\PSoC4/cyfitter_cfg.c **** #define CYCLOCKSTART_PLL_ERROR   3u
  84:.\Generated_Source\PSoC4/cyfitter_cfg.c **** 
  85:.\Generated_Source\PSoC4/cyfitter_cfg.c **** #ifdef CY_NEED_CYCLOCKSTARTUPERROR
  86:.\Generated_Source\PSoC4/cyfitter_cfg.c **** /*******************************************************************************
  87:.\Generated_Source\PSoC4/cyfitter_cfg.c **** * Function Name: CyClockStartupError
  88:.\Generated_Source\PSoC4/cyfitter_cfg.c **** ********************************************************************************
  89:.\Generated_Source\PSoC4/cyfitter_cfg.c **** * Summary:
  90:.\Generated_Source\PSoC4/cyfitter_cfg.c **** *  If an error is encountered during clock configuration (crystal startup error,
ARM GAS  C:\Users\leander\AppData\Local\Temp\ccGLkNf6.s 			page 3


  91:.\Generated_Source\PSoC4/cyfitter_cfg.c **** *  PLL lock error, etc.), the system will end up here.  Unless reimplemented by
  92:.\Generated_Source\PSoC4/cyfitter_cfg.c **** *  the customer, this function will stop in an infinite loop.
  93:.\Generated_Source\PSoC4/cyfitter_cfg.c **** *
  94:.\Generated_Source\PSoC4/cyfitter_cfg.c **** * Parameters:
  95:.\Generated_Source\PSoC4/cyfitter_cfg.c **** *   void
  96:.\Generated_Source\PSoC4/cyfitter_cfg.c **** *
  97:.\Generated_Source\PSoC4/cyfitter_cfg.c **** * Return:
  98:.\Generated_Source\PSoC4/cyfitter_cfg.c **** *   void
  99:.\Generated_Source\PSoC4/cyfitter_cfg.c **** *
 100:.\Generated_Source\PSoC4/cyfitter_cfg.c **** *******************************************************************************/
 101:.\Generated_Source\PSoC4/cyfitter_cfg.c **** CY_CFG_UNUSED
 102:.\Generated_Source\PSoC4/cyfitter_cfg.c **** static void CyClockStartupError(uint8 errorCode);
 103:.\Generated_Source\PSoC4/cyfitter_cfg.c **** CY_CFG_UNUSED
 104:.\Generated_Source\PSoC4/cyfitter_cfg.c **** static void CyClockStartupError(uint8 errorCode)
 105:.\Generated_Source\PSoC4/cyfitter_cfg.c **** {
 106:.\Generated_Source\PSoC4/cyfitter_cfg.c ****     /* To remove the compiler warning if errorCode not used.                */
 107:.\Generated_Source\PSoC4/cyfitter_cfg.c ****     errorCode = errorCode;
 108:.\Generated_Source\PSoC4/cyfitter_cfg.c **** 
 109:.\Generated_Source\PSoC4/cyfitter_cfg.c ****     /* `#START CyClockStartupError` */
 110:.\Generated_Source\PSoC4/cyfitter_cfg.c **** 
 111:.\Generated_Source\PSoC4/cyfitter_cfg.c ****     /* If we have a clock startup error (bad MHz crystal, PLL lock, etc.),  */
 112:.\Generated_Source\PSoC4/cyfitter_cfg.c ****     /* we will end up here to allow the customer to implement something to  */
 113:.\Generated_Source\PSoC4/cyfitter_cfg.c ****     /* deal with the clock condition.                                       */
 114:.\Generated_Source\PSoC4/cyfitter_cfg.c **** 
 115:.\Generated_Source\PSoC4/cyfitter_cfg.c ****     /* `#END` */
 116:.\Generated_Source\PSoC4/cyfitter_cfg.c **** 
 117:.\Generated_Source\PSoC4/cyfitter_cfg.c ****     /* If nothing else, stop here since the clocks have not started         */
 118:.\Generated_Source\PSoC4/cyfitter_cfg.c ****     /* correctly.                                                           */
 119:.\Generated_Source\PSoC4/cyfitter_cfg.c ****     while(1) {}
 120:.\Generated_Source\PSoC4/cyfitter_cfg.c **** }
 121:.\Generated_Source\PSoC4/cyfitter_cfg.c **** #endif
 122:.\Generated_Source\PSoC4/cyfitter_cfg.c **** 
 123:.\Generated_Source\PSoC4/cyfitter_cfg.c **** #define CY_CFG_BASE_ADDR_COUNT 7u
 124:.\Generated_Source\PSoC4/cyfitter_cfg.c **** CYPACKED typedef struct
 125:.\Generated_Source\PSoC4/cyfitter_cfg.c **** {
 126:.\Generated_Source\PSoC4/cyfitter_cfg.c **** 	uint8 offset;
 127:.\Generated_Source\PSoC4/cyfitter_cfg.c **** 	uint8 value;
 128:.\Generated_Source\PSoC4/cyfitter_cfg.c **** } CYPACKED_ATTR cy_cfg_addrvalue_t;
 129:.\Generated_Source\PSoC4/cyfitter_cfg.c **** 
 130:.\Generated_Source\PSoC4/cyfitter_cfg.c **** 
 131:.\Generated_Source\PSoC4/cyfitter_cfg.c **** 
 132:.\Generated_Source\PSoC4/cyfitter_cfg.c **** /*******************************************************************************
 133:.\Generated_Source\PSoC4/cyfitter_cfg.c **** * Function Name: cfg_write_bytes32
 134:.\Generated_Source\PSoC4/cyfitter_cfg.c **** ********************************************************************************
 135:.\Generated_Source\PSoC4/cyfitter_cfg.c **** * Summary:
 136:.\Generated_Source\PSoC4/cyfitter_cfg.c **** *  This function is used for setting up the chip configuration areas that
 137:.\Generated_Source\PSoC4/cyfitter_cfg.c **** *  contain relatively sparse data.
 138:.\Generated_Source\PSoC4/cyfitter_cfg.c **** *
 139:.\Generated_Source\PSoC4/cyfitter_cfg.c **** * Parameters:
 140:.\Generated_Source\PSoC4/cyfitter_cfg.c **** *   void
 141:.\Generated_Source\PSoC4/cyfitter_cfg.c **** *
 142:.\Generated_Source\PSoC4/cyfitter_cfg.c **** * Return:
 143:.\Generated_Source\PSoC4/cyfitter_cfg.c **** *   void
 144:.\Generated_Source\PSoC4/cyfitter_cfg.c **** *
 145:.\Generated_Source\PSoC4/cyfitter_cfg.c **** *******************************************************************************/
 146:.\Generated_Source\PSoC4/cyfitter_cfg.c **** static void cfg_write_bytes32(const uint32 addr_table[], const cy_cfg_addrvalue_t data_table[]);
 147:.\Generated_Source\PSoC4/cyfitter_cfg.c **** static void cfg_write_bytes32(const uint32 addr_table[], const cy_cfg_addrvalue_t data_table[])
ARM GAS  C:\Users\leander\AppData\Local\Temp\ccGLkNf6.s 			page 4


 148:.\Generated_Source\PSoC4/cyfitter_cfg.c **** {
  25              		.loc 1 148 0
  26              		.cfi_startproc
  27              	.LVL0:
  28 0000 F0B5     		push	{r4, r5, r6, r7, lr}
  29              		.cfi_def_cfa_offset 20
  30              		.cfi_offset 4, -20
  31              		.cfi_offset 5, -16
  32              		.cfi_offset 6, -12
  33              		.cfi_offset 7, -8
  34              		.cfi_offset 14, -4
  35              	.LVL1:
 149:.\Generated_Source\PSoC4/cyfitter_cfg.c **** 	/* For 32-bit little-endian architectures */
 150:.\Generated_Source\PSoC4/cyfitter_cfg.c **** 	uint32 i, j = 0u;
  36              		.loc 1 150 0
  37 0002 0025     		mov	r5, #0
 151:.\Generated_Source\PSoC4/cyfitter_cfg.c **** 	for (i = 0u; i < CY_CFG_BASE_ADDR_COUNT; i++)
  38              		.loc 1 151 0
  39 0004 0027     		mov	r7, #0
  40 0006 11E0     		b	.L2
  41              	.LVL2:
  42              	.L5:
  43              	.LBB2:
 152:.\Generated_Source\PSoC4/cyfitter_cfg.c **** 	{
 153:.\Generated_Source\PSoC4/cyfitter_cfg.c **** 		uint32 baseAddr = addr_table[i];
  44              		.loc 1 153 0
  45 0008 BB00     		lsl	r3, r7, #2
  46 000a C658     		ldr	r6, [r0, r3]
  47              	.LVL3:
 154:.\Generated_Source\PSoC4/cyfitter_cfg.c **** 		uint8 count = (uint8)baseAddr;
  48              		.loc 1 154 0
  49 000c F3B2     		uxtb	r3, r6
  50              	.LVL4:
 155:.\Generated_Source\PSoC4/cyfitter_cfg.c **** 		baseAddr &= 0xFFFFFF00u;
  51              		.loc 1 155 0
  52 000e FF22     		mov	r2, #255
  53 0010 9643     		bic	r6, r2
  54              	.LVL5:
 156:.\Generated_Source\PSoC4/cyfitter_cfg.c **** 		while (count != 0u)
  55              		.loc 1 156 0
  56 0012 08E0     		b	.L3
  57              	.L4:
 157:.\Generated_Source\PSoC4/cyfitter_cfg.c **** 		{
 158:.\Generated_Source\PSoC4/cyfitter_cfg.c **** 			CY_SET_XTND_REG8((void CYFAR *)(baseAddr + data_table[j].offset), data_table[j].value);
  58              		.loc 1 158 0
  59 0014 6A00     		lsl	r2, r5, #1
  60 0016 8A18     		add	r2, r1, r2
  61 0018 1478     		ldrb	r4, [r2]
  62 001a A419     		add	r4, r4, r6
  63 001c 5278     		ldrb	r2, [r2, #1]
  64 001e 2270     		strb	r2, [r4]
 159:.\Generated_Source\PSoC4/cyfitter_cfg.c **** 			j++;
  65              		.loc 1 159 0
  66 0020 0135     		add	r5, r5, #1
  67              	.LVL6:
 160:.\Generated_Source\PSoC4/cyfitter_cfg.c **** 			count--;
  68              		.loc 1 160 0
ARM GAS  C:\Users\leander\AppData\Local\Temp\ccGLkNf6.s 			page 5


  69 0022 013B     		sub	r3, r3, #1
  70              	.LVL7:
  71 0024 DBB2     		uxtb	r3, r3
  72              	.LVL8:
  73              	.L3:
 156:.\Generated_Source\PSoC4/cyfitter_cfg.c **** 		{
  74              		.loc 1 156 0
  75 0026 002B     		cmp	r3, #0
  76 0028 F4D1     		bne	.L4
  77              	.LBE2:
 151:.\Generated_Source\PSoC4/cyfitter_cfg.c **** 	{
  78              		.loc 1 151 0 discriminator 2
  79 002a 0137     		add	r7, r7, #1
  80              	.LVL9:
  81              	.L2:
 151:.\Generated_Source\PSoC4/cyfitter_cfg.c **** 	{
  82              		.loc 1 151 0 is_stmt 0 discriminator 1
  83 002c 062F     		cmp	r7, #6
  84 002e EBD9     		bls	.L5
 161:.\Generated_Source\PSoC4/cyfitter_cfg.c **** 		}
 162:.\Generated_Source\PSoC4/cyfitter_cfg.c **** 	}
 163:.\Generated_Source\PSoC4/cyfitter_cfg.c **** }
  85              		.loc 1 163 0 is_stmt 1
  86              		@ sp needed
  87              	.LVL10:
  88              	.LVL11:
  89 0030 F0BD     		pop	{r4, r5, r6, r7, pc}
  90              		.cfi_endproc
  91              	.LFE5:
  92              		.size	cfg_write_bytes32, .-cfg_write_bytes32
  93 0032 C046     		.section	.text.AnalogSetDefault,"ax",%progbits
  94              		.align	2
  95              		.code	16
  96              		.thumb_func
  97              		.type	AnalogSetDefault, %function
  98              	AnalogSetDefault:
  99              	.LFB7:
 164:.\Generated_Source\PSoC4/cyfitter_cfg.c **** 
 165:.\Generated_Source\PSoC4/cyfitter_cfg.c **** 
 166:.\Generated_Source\PSoC4/cyfitter_cfg.c **** /*******************************************************************************
 167:.\Generated_Source\PSoC4/cyfitter_cfg.c **** * Function Name: ClockSetup
 168:.\Generated_Source\PSoC4/cyfitter_cfg.c **** ********************************************************************************
 169:.\Generated_Source\PSoC4/cyfitter_cfg.c **** *
 170:.\Generated_Source\PSoC4/cyfitter_cfg.c **** * Summary:
 171:.\Generated_Source\PSoC4/cyfitter_cfg.c **** *   Performs the initialization of all of the clocks in the device based on the
 172:.\Generated_Source\PSoC4/cyfitter_cfg.c **** *   settings in the Clock tab of the DWR.  This includes enabling the requested
 173:.\Generated_Source\PSoC4/cyfitter_cfg.c **** *   clocks and setting the necessary dividers to produce the desired frequency. 
 174:.\Generated_Source\PSoC4/cyfitter_cfg.c **** *
 175:.\Generated_Source\PSoC4/cyfitter_cfg.c **** * Parameters:
 176:.\Generated_Source\PSoC4/cyfitter_cfg.c **** *   void
 177:.\Generated_Source\PSoC4/cyfitter_cfg.c **** *
 178:.\Generated_Source\PSoC4/cyfitter_cfg.c **** * Return:
 179:.\Generated_Source\PSoC4/cyfitter_cfg.c **** *   void
 180:.\Generated_Source\PSoC4/cyfitter_cfg.c **** *
 181:.\Generated_Source\PSoC4/cyfitter_cfg.c **** *******************************************************************************/
 182:.\Generated_Source\PSoC4/cyfitter_cfg.c **** static void ClockSetup(void);
 183:.\Generated_Source\PSoC4/cyfitter_cfg.c **** CY_CFG_SECTION
ARM GAS  C:\Users\leander\AppData\Local\Temp\ccGLkNf6.s 			page 6


 184:.\Generated_Source\PSoC4/cyfitter_cfg.c **** static void ClockSetup(void)
 185:.\Generated_Source\PSoC4/cyfitter_cfg.c **** {
 186:.\Generated_Source\PSoC4/cyfitter_cfg.c **** 
 187:.\Generated_Source\PSoC4/cyfitter_cfg.c **** 	/* Set Flash Cycles based on max possible frequency in case a glitch occurs during ClockSetup(). *
 188:.\Generated_Source\PSoC4/cyfitter_cfg.c **** 	CY_SET_REG32((void CYXDATA *)(CYREG_CPUSS_FLASH_CTL), (0x0012u));
 189:.\Generated_Source\PSoC4/cyfitter_cfg.c **** 
 190:.\Generated_Source\PSoC4/cyfitter_cfg.c **** 	/* Start the WCO */
 191:.\Generated_Source\PSoC4/cyfitter_cfg.c **** 	CySysClkWcoStart();
 192:.\Generated_Source\PSoC4/cyfitter_cfg.c **** 	(void)CySysClkWcoSetPowerMode(CY_SYS_CLK_WCO_LPM);    /* Switch to the low power mode */
 193:.\Generated_Source\PSoC4/cyfitter_cfg.c **** 
 194:.\Generated_Source\PSoC4/cyfitter_cfg.c **** 	/* Setup and trim IMO based on desired frequency. */
 195:.\Generated_Source\PSoC4/cyfitter_cfg.c **** 	CySysClkWriteImoFreq(24u);
 196:.\Generated_Source\PSoC4/cyfitter_cfg.c **** 	/* CYDEV_CLK_ILO_CONFIG Starting address: CYDEV_CLK_ILO_CONFIG */
 197:.\Generated_Source\PSoC4/cyfitter_cfg.c **** 	CY_SET_XTND_REG32((void CYFAR *)(CYREG_CLK_ILO_CONFIG), 0x80000006u);
 198:.\Generated_Source\PSoC4/cyfitter_cfg.c **** 
 199:.\Generated_Source\PSoC4/cyfitter_cfg.c **** 
 200:.\Generated_Source\PSoC4/cyfitter_cfg.c **** 	/* Enable fast start mode for XO */
 201:.\Generated_Source\PSoC4/cyfitter_cfg.c **** 	CY_SET_REG32((void*)CYREG_BLE_BLERD_BB_XO, CY_GET_REG32((void*)CYREG_BLE_BLERD_BB_XO) | (uint32)0x
 202:.\Generated_Source\PSoC4/cyfitter_cfg.c **** 	CY_SET_XTND_REG32((void CYFAR *)(CYREG_BLE_BLERD_BB_XO_CAPTRIM), 0x00003E2Du);
 203:.\Generated_Source\PSoC4/cyfitter_cfg.c **** 	/* Disable Crystal Stable Interrupt before enabling ECO */
 204:.\Generated_Source\PSoC4/cyfitter_cfg.c **** 	CY_SET_REG32((void*)CYREG_BLE_BLESS_LL_DSM_CTRL, CY_GET_REG32((void*)CYREG_BLE_BLESS_LL_DSM_CTRL) 
 205:.\Generated_Source\PSoC4/cyfitter_cfg.c **** 	/* Start the ECO and do not check status since it is not needed for HFCLK */
 206:.\Generated_Source\PSoC4/cyfitter_cfg.c **** 	(void)CySysClkEcoStart(2000u);
 207:.\Generated_Source\PSoC4/cyfitter_cfg.c **** 	CyDelayUs(1500u); /* Wait to stabalize */
 208:.\Generated_Source\PSoC4/cyfitter_cfg.c **** 
 209:.\Generated_Source\PSoC4/cyfitter_cfg.c **** 	/* Setup phase aligned clocks */
 210:.\Generated_Source\PSoC4/cyfitter_cfg.c **** 	CY_SET_REG32((void *)CYREG_PERI_DIV_16_CTL0, 0x005DBF00u);
 211:.\Generated_Source\PSoC4/cyfitter_cfg.c **** 	CY_SET_REG32((void *)CYREG_PERI_DIV_CMD, 0x8000FF40u);
 212:.\Generated_Source\PSoC4/cyfitter_cfg.c **** 
 213:.\Generated_Source\PSoC4/cyfitter_cfg.c **** 	/* CYDEV_CLK_IMO_CONFIG Starting address: CYDEV_CLK_IMO_CONFIG */
 214:.\Generated_Source\PSoC4/cyfitter_cfg.c **** 	CY_SET_XTND_REG32((void CYFAR *)(CYREG_CLK_IMO_CONFIG), 0x80000000u);
 215:.\Generated_Source\PSoC4/cyfitter_cfg.c **** 
 216:.\Generated_Source\PSoC4/cyfitter_cfg.c **** 	/* CYDEV_PERI_PCLK_CTL8 Starting address: CYDEV_PERI_PCLK_CTL8 */
 217:.\Generated_Source\PSoC4/cyfitter_cfg.c **** 	CY_SET_XTND_REG32((void CYFAR *)(CYREG_PERI_PCLK_CTL8), 0x00000040u);
 218:.\Generated_Source\PSoC4/cyfitter_cfg.c **** 
 219:.\Generated_Source\PSoC4/cyfitter_cfg.c **** 	/* CYDEV_PERI_PCLK_CTL7 Starting address: CYDEV_PERI_PCLK_CTL7 */
 220:.\Generated_Source\PSoC4/cyfitter_cfg.c **** 	CY_SET_XTND_REG32((void CYFAR *)(CYREG_PERI_PCLK_CTL7), 0x00000040u);
 221:.\Generated_Source\PSoC4/cyfitter_cfg.c **** 
 222:.\Generated_Source\PSoC4/cyfitter_cfg.c **** 	CY_SET_XTND_REG32((void CYFAR *)(CYREG_WDT_CONFIG), 0x00000000u);
 223:.\Generated_Source\PSoC4/cyfitter_cfg.c **** 	/* Set Flash Cycles based on newly configured 24.00MHz HFCLK. */
 224:.\Generated_Source\PSoC4/cyfitter_cfg.c **** 	CY_SET_REG32((void CYXDATA *)(CYREG_CPUSS_FLASH_CTL), (0x0011u));
 225:.\Generated_Source\PSoC4/cyfitter_cfg.c **** }
 226:.\Generated_Source\PSoC4/cyfitter_cfg.c **** 
 227:.\Generated_Source\PSoC4/cyfitter_cfg.c **** 
 228:.\Generated_Source\PSoC4/cyfitter_cfg.c **** /* Analog API Functions */
 229:.\Generated_Source\PSoC4/cyfitter_cfg.c **** 
 230:.\Generated_Source\PSoC4/cyfitter_cfg.c **** 
 231:.\Generated_Source\PSoC4/cyfitter_cfg.c **** /*******************************************************************************
 232:.\Generated_Source\PSoC4/cyfitter_cfg.c **** * Function Name: AnalogSetDefault
 233:.\Generated_Source\PSoC4/cyfitter_cfg.c **** ********************************************************************************
 234:.\Generated_Source\PSoC4/cyfitter_cfg.c **** *
 235:.\Generated_Source\PSoC4/cyfitter_cfg.c **** * Summary:
 236:.\Generated_Source\PSoC4/cyfitter_cfg.c **** *  Sets up the analog portions of the chip to default values based on chip
 237:.\Generated_Source\PSoC4/cyfitter_cfg.c **** *  configuration options from the project.
 238:.\Generated_Source\PSoC4/cyfitter_cfg.c **** *
 239:.\Generated_Source\PSoC4/cyfitter_cfg.c **** * Parameters:
 240:.\Generated_Source\PSoC4/cyfitter_cfg.c **** *  void
ARM GAS  C:\Users\leander\AppData\Local\Temp\ccGLkNf6.s 			page 7


 241:.\Generated_Source\PSoC4/cyfitter_cfg.c **** *
 242:.\Generated_Source\PSoC4/cyfitter_cfg.c **** * Return:
 243:.\Generated_Source\PSoC4/cyfitter_cfg.c **** *  void
 244:.\Generated_Source\PSoC4/cyfitter_cfg.c **** *
 245:.\Generated_Source\PSoC4/cyfitter_cfg.c **** *******************************************************************************/
 246:.\Generated_Source\PSoC4/cyfitter_cfg.c **** static void AnalogSetDefault(void);
 247:.\Generated_Source\PSoC4/cyfitter_cfg.c **** static void AnalogSetDefault(void)
 248:.\Generated_Source\PSoC4/cyfitter_cfg.c **** {
 100              		.loc 1 248 0
 101              		.cfi_startproc
 249:.\Generated_Source\PSoC4/cyfitter_cfg.c **** 	CY_SET_XTND_REG32((void CYFAR *)CYREG_CTBM0_DFT_CTRL, 0x00000003u);
 102              		.loc 1 249 0
 103 0000 0323     		mov	r3, #3
 104 0002 044A     		ldr	r2, .L7
 105 0004 1360     		str	r3, [r2]
 250:.\Generated_Source\PSoC4/cyfitter_cfg.c **** 	CY_SET_XTND_REG32((void CYFAR *)CYREG_CTBM1_DFT_CTRL, 0x00000003u);
 106              		.loc 1 250 0
 107 0006 044A     		ldr	r2, .L7+4
 108 0008 1360     		str	r3, [r2]
 251:.\Generated_Source\PSoC4/cyfitter_cfg.c **** 	CY_SET_XTND_REG32((void CYFAR *)CYREG_PASS_DSAB_DSAB_CTRL, 0x00000000u);
 109              		.loc 1 251 0
 110 000a 0022     		mov	r2, #0
 111 000c 034B     		ldr	r3, .L7+8
 112 000e 1A60     		str	r2, [r3]
 252:.\Generated_Source\PSoC4/cyfitter_cfg.c **** }
 113              		.loc 1 252 0
 114              		@ sp needed
 115 0010 7047     		bx	lr
 116              	.L8:
 117 0012 C046     		.align	2
 118              	.L7:
 119 0014 30003040 		.word	1076887600
 120 0018 30003140 		.word	1076953136
 121 001c 000E3F40 		.word	1077874176
 122              		.cfi_endproc
 123              	.LFE7:
 124              		.size	AnalogSetDefault, .-AnalogSetDefault
 125              		.section	.text.CYMEMZERO,"ax",%progbits
 126              		.align	2
 127              		.code	16
 128              		.thumb_func
 129              		.type	CYMEMZERO, %function
 130              	CYMEMZERO:
 131              	.LFB2:
  59:.\Generated_Source\PSoC4/cyfitter_cfg.c **** 	(void)memset(s, 0, n);
 132              		.loc 1 59 0
 133              		.cfi_startproc
 134              	.LVL12:
 135 0000 08B5     		push	{r3, lr}
 136              		.cfi_def_cfa_offset 8
 137              		.cfi_offset 3, -8
 138              		.cfi_offset 14, -4
 139 0002 0A1C     		mov	r2, r1
  60:.\Generated_Source\PSoC4/cyfitter_cfg.c **** }
 140              		.loc 1 60 0
 141 0004 0021     		mov	r1, #0
 142              	.LVL13:
ARM GAS  C:\Users\leander\AppData\Local\Temp\ccGLkNf6.s 			page 8


 143 0006 FFF7FEFF 		bl	memset
 144              	.LVL14:
  61:.\Generated_Source\PSoC4/cyfitter_cfg.c **** CY_CFG_UNUSED
 145              		.loc 1 61 0
 146              		@ sp needed
 147 000a 08BD     		pop	{r3, pc}
 148              		.cfi_endproc
 149              	.LFE2:
 150              		.size	CYMEMZERO, .-CYMEMZERO
 151              		.section	.psocinit,"ax",%progbits
 152              		.align	2
 153              		.code	16
 154              		.thumb_func
 155              		.type	ClockSetup, %function
 156              	ClockSetup:
 157              	.LFB6:
 185:.\Generated_Source\PSoC4/cyfitter_cfg.c **** 
 158              		.loc 1 185 0
 159              		.cfi_startproc
 160 0000 10B5     		push	{r4, lr}
 161              		.cfi_def_cfa_offset 8
 162              		.cfi_offset 4, -8
 163              		.cfi_offset 14, -4
 188:.\Generated_Source\PSoC4/cyfitter_cfg.c **** 
 164              		.loc 1 188 0
 165 0002 1B4C     		ldr	r4, .L11
 166 0004 1223     		mov	r3, #18
 167 0006 2360     		str	r3, [r4]
 191:.\Generated_Source\PSoC4/cyfitter_cfg.c **** 	(void)CySysClkWcoSetPowerMode(CY_SYS_CLK_WCO_LPM);    /* Switch to the low power mode */
 168              		.loc 1 191 0
 169 0008 FFF7FEFF 		bl	CySysClkWcoStart
 170              	.LVL15:
 192:.\Generated_Source\PSoC4/cyfitter_cfg.c **** 
 171              		.loc 1 192 0
 172 000c 0120     		mov	r0, #1
 173 000e FFF7FEFF 		bl	CySysClkWcoSetPowerMode
 174              	.LVL16:
 195:.\Generated_Source\PSoC4/cyfitter_cfg.c **** 	/* CYDEV_CLK_ILO_CONFIG Starting address: CYDEV_CLK_ILO_CONFIG */
 175              		.loc 1 195 0
 176 0012 1820     		mov	r0, #24
 177 0014 FFF7FEFF 		bl	CySysClkWriteImoFreq
 178              	.LVL17:
 197:.\Generated_Source\PSoC4/cyfitter_cfg.c **** 
 179              		.loc 1 197 0
 180 0018 164A     		ldr	r2, .L11+4
 181 001a 174B     		ldr	r3, .L11+8
 182 001c 1A60     		str	r2, [r3]
 201:.\Generated_Source\PSoC4/cyfitter_cfg.c **** 	CY_SET_XTND_REG32((void CYFAR *)(CYREG_BLE_BLERD_BB_XO_CAPTRIM), 0x00003E2Du);
 183              		.loc 1 201 0
 184 001e 174A     		ldr	r2, .L11+12
 185 0020 1168     		ldr	r1, [r2]
 186 0022 0223     		mov	r3, #2
 187 0024 0B43     		orr	r3, r1
 188 0026 1360     		str	r3, [r2]
 202:.\Generated_Source\PSoC4/cyfitter_cfg.c **** 	/* Disable Crystal Stable Interrupt before enabling ECO */
 189              		.loc 1 202 0
 190 0028 154A     		ldr	r2, .L11+16
ARM GAS  C:\Users\leander\AppData\Local\Temp\ccGLkNf6.s 			page 9


 191 002a 164B     		ldr	r3, .L11+20
 192 002c 1A60     		str	r2, [r3]
 204:.\Generated_Source\PSoC4/cyfitter_cfg.c **** 	/* Start the ECO and do not check status since it is not needed for HFCLK */
 193              		.loc 1 204 0
 194 002e 164A     		ldr	r2, .L11+24
 195 0030 1368     		ldr	r3, [r2]
 196 0032 0821     		mov	r1, #8
 197 0034 8B43     		bic	r3, r1
 198 0036 1360     		str	r3, [r2]
 206:.\Generated_Source\PSoC4/cyfitter_cfg.c **** 	CyDelayUs(1500u); /* Wait to stabalize */
 199              		.loc 1 206 0
 200 0038 FA20     		mov	r0, #250
 201 003a C000     		lsl	r0, r0, #3
 202 003c FFF7FEFF 		bl	CySysClkEcoStart
 203              	.LVL18:
 207:.\Generated_Source\PSoC4/cyfitter_cfg.c **** 
 204              		.loc 1 207 0
 205 0040 1248     		ldr	r0, .L11+28
 206 0042 FFF7FEFF 		bl	CyDelayUs
 207              	.LVL19:
 210:.\Generated_Source\PSoC4/cyfitter_cfg.c **** 	CY_SET_REG32((void *)CYREG_PERI_DIV_CMD, 0x8000FF40u);
 208              		.loc 1 210 0
 209 0046 124A     		ldr	r2, .L11+32
 210 0048 124B     		ldr	r3, .L11+36
 211 004a 1A60     		str	r2, [r3]
 211:.\Generated_Source\PSoC4/cyfitter_cfg.c **** 
 212              		.loc 1 211 0
 213 004c 124A     		ldr	r2, .L11+40
 214 004e 134B     		ldr	r3, .L11+44
 215 0050 1A60     		str	r2, [r3]
 214:.\Generated_Source\PSoC4/cyfitter_cfg.c **** 
 216              		.loc 1 214 0
 217 0052 8022     		mov	r2, #128
 218 0054 1206     		lsl	r2, r2, #24
 219 0056 124B     		ldr	r3, .L11+48
 220 0058 1A60     		str	r2, [r3]
 217:.\Generated_Source\PSoC4/cyfitter_cfg.c **** 
 221              		.loc 1 217 0
 222 005a 4023     		mov	r3, #64
 223 005c 114A     		ldr	r2, .L11+52
 224 005e 1360     		str	r3, [r2]
 220:.\Generated_Source\PSoC4/cyfitter_cfg.c **** 
 225              		.loc 1 220 0
 226 0060 114A     		ldr	r2, .L11+56
 227 0062 1360     		str	r3, [r2]
 222:.\Generated_Source\PSoC4/cyfitter_cfg.c **** 	/* Set Flash Cycles based on newly configured 24.00MHz HFCLK. */
 228              		.loc 1 222 0
 229 0064 0022     		mov	r2, #0
 230 0066 114B     		ldr	r3, .L11+60
 231 0068 1A60     		str	r2, [r3]
 224:.\Generated_Source\PSoC4/cyfitter_cfg.c **** }
 232              		.loc 1 224 0
 233 006a 1123     		mov	r3, #17
 234 006c 2360     		str	r3, [r4]
 225:.\Generated_Source\PSoC4/cyfitter_cfg.c **** 
 235              		.loc 1 225 0
 236              		@ sp needed
ARM GAS  C:\Users\leander\AppData\Local\Temp\ccGLkNf6.s 			page 10


 237 006e 10BD     		pop	{r4, pc}
 238              	.L12:
 239              		.align	2
 240              	.L11:
 241 0070 30001040 		.word	1074790448
 242 0074 06000080 		.word	-2147483642
 243 0078 04010B40 		.word	1074462980
 244 007c 78002E40 		.word	1076756600
 245 0080 2D3E0000 		.word	15917
 246 0084 7C002E40 		.word	1076756604
 247 0088 6CF02E40 		.word	1076818028
 248 008c DC050000 		.word	1500
 249 0090 00BF5D00 		.word	6143744
 250 0094 00030140 		.word	1073808128
 251 0098 40FF0080 		.word	-2147418304
 252 009c 00000140 		.word	1073807360
 253 00a0 08010B40 		.word	1074462984
 254 00a4 20010140 		.word	1073807648
 255 00a8 1C010140 		.word	1073807644
 256 00ac 0C020B40 		.word	1074463244
 257              		.cfi_endproc
 258              	.LFE6:
 259              		.size	ClockSetup, .-ClockSetup
 260              		.align	2
 261              		.global	cyfitter_cfg
 262              		.code	16
 263              		.thumb_func
 264              		.type	cyfitter_cfg, %function
 265              	cyfitter_cfg:
 266              	.LFB8:
 253:.\Generated_Source\PSoC4/cyfitter_cfg.c **** 
 254:.\Generated_Source\PSoC4/cyfitter_cfg.c **** #define CY_AMUX_UNUSED CYREG_CM0_ROM_DWT
 255:.\Generated_Source\PSoC4/cyfitter_cfg.c **** 
 256:.\Generated_Source\PSoC4/cyfitter_cfg.c **** 
 257:.\Generated_Source\PSoC4/cyfitter_cfg.c **** /*******************************************************************************
 258:.\Generated_Source\PSoC4/cyfitter_cfg.c **** * Function Name: cyfitter_cfg
 259:.\Generated_Source\PSoC4/cyfitter_cfg.c **** ********************************************************************************
 260:.\Generated_Source\PSoC4/cyfitter_cfg.c **** * Summary:
 261:.\Generated_Source\PSoC4/cyfitter_cfg.c **** *  This function is called by the start-up code for the selected device. It
 262:.\Generated_Source\PSoC4/cyfitter_cfg.c **** *  performs all of the necessary device configuration based on the design
 263:.\Generated_Source\PSoC4/cyfitter_cfg.c **** *  settings.  This includes settings from the Design Wide Resources (DWR) such
 264:.\Generated_Source\PSoC4/cyfitter_cfg.c **** *  as Clocks and Pins as well as any component configuration that is necessary.
 265:.\Generated_Source\PSoC4/cyfitter_cfg.c **** *
 266:.\Generated_Source\PSoC4/cyfitter_cfg.c **** * Parameters:  
 267:.\Generated_Source\PSoC4/cyfitter_cfg.c **** *   void
 268:.\Generated_Source\PSoC4/cyfitter_cfg.c **** *
 269:.\Generated_Source\PSoC4/cyfitter_cfg.c **** * Return:
 270:.\Generated_Source\PSoC4/cyfitter_cfg.c **** *   void
 271:.\Generated_Source\PSoC4/cyfitter_cfg.c **** *
 272:.\Generated_Source\PSoC4/cyfitter_cfg.c **** *******************************************************************************/
 273:.\Generated_Source\PSoC4/cyfitter_cfg.c **** CY_CFG_SECTION
 274:.\Generated_Source\PSoC4/cyfitter_cfg.c **** void cyfitter_cfg(void)
 275:.\Generated_Source\PSoC4/cyfitter_cfg.c **** {
 267              		.loc 1 275 0
 268              		.cfi_startproc
 269 00b0 10B5     		push	{r4, lr}
 270              		.cfi_def_cfa_offset 8
ARM GAS  C:\Users\leander\AppData\Local\Temp\ccGLkNf6.s 			page 11


 271              		.cfi_offset 4, -8
 272              		.cfi_offset 14, -4
 276:.\Generated_Source\PSoC4/cyfitter_cfg.c **** 	/* Disable interrupts by default. Let user enable if/when they want. */
 277:.\Generated_Source\PSoC4/cyfitter_cfg.c **** 	CyGlobalIntDisable;
 273              		.loc 1 277 0
 274              	@ 277 ".\Generated_Source\PSoC4\cyfitter_cfg.c" 1
 275 00b2 72B6     		CPSID   i
 276              	@ 0 "" 2
 278:.\Generated_Source\PSoC4/cyfitter_cfg.c **** 
 279:.\Generated_Source\PSoC4/cyfitter_cfg.c **** 	CY_SET_XTND_REG32((void CYFAR *)(CYREG_BLE_BLESS_LL_DSM_CTRL), 0x00000000u);
 277              		.loc 1 279 0
 278              		.code	16
 279 00b4 0022     		mov	r2, #0
 280 00b6 284B     		ldr	r3, .L16
 281 00b8 1A60     		str	r2, [r3]
 282              	.LVL20:
 283              	.LBB3:
 280:.\Generated_Source\PSoC4/cyfitter_cfg.c **** 
 281:.\Generated_Source\PSoC4/cyfitter_cfg.c **** 	{
 282:.\Generated_Source\PSoC4/cyfitter_cfg.c **** 		static const uint32 CYCODE cy_cfg_addr_table[] = {
 283:.\Generated_Source\PSoC4/cyfitter_cfg.c **** 			0x400F3101u, /* Base address: 0x400F3100 Count: 1 */
 284:.\Generated_Source\PSoC4/cyfitter_cfg.c **** 			0x400F320Fu, /* Base address: 0x400F3200 Count: 15 */
 285:.\Generated_Source\PSoC4/cyfitter_cfg.c **** 			0x400F331Eu, /* Base address: 0x400F3300 Count: 30 */
 286:.\Generated_Source\PSoC4/cyfitter_cfg.c **** 			0x400F4007u, /* Base address: 0x400F4000 Count: 7 */
 287:.\Generated_Source\PSoC4/cyfitter_cfg.c **** 			0x400F4113u, /* Base address: 0x400F4100 Count: 19 */
 288:.\Generated_Source\PSoC4/cyfitter_cfg.c **** 			0x400F4205u, /* Base address: 0x400F4200 Count: 5 */
 289:.\Generated_Source\PSoC4/cyfitter_cfg.c **** 			0x400F4302u, /* Base address: 0x400F4300 Count: 2 */
 290:.\Generated_Source\PSoC4/cyfitter_cfg.c **** 		};
 291:.\Generated_Source\PSoC4/cyfitter_cfg.c **** 
 292:.\Generated_Source\PSoC4/cyfitter_cfg.c **** 		static const cy_cfg_addrvalue_t CYCODE cy_cfg_data_table[] = {
 293:.\Generated_Source\PSoC4/cyfitter_cfg.c **** 			{0x8Eu, 0x20u},
 294:.\Generated_Source\PSoC4/cyfitter_cfg.c **** 			{0x06u, 0x02u},
 295:.\Generated_Source\PSoC4/cyfitter_cfg.c **** 			{0x0Eu, 0x04u},
 296:.\Generated_Source\PSoC4/cyfitter_cfg.c **** 			{0x1Cu, 0x09u},
 297:.\Generated_Source\PSoC4/cyfitter_cfg.c **** 			{0x22u, 0x01u},
 298:.\Generated_Source\PSoC4/cyfitter_cfg.c **** 			{0x24u, 0x06u},
 299:.\Generated_Source\PSoC4/cyfitter_cfg.c **** 			{0x2Au, 0x08u},
 300:.\Generated_Source\PSoC4/cyfitter_cfg.c **** 			{0x30u, 0x08u},
 301:.\Generated_Source\PSoC4/cyfitter_cfg.c **** 			{0x32u, 0x01u},
 302:.\Generated_Source\PSoC4/cyfitter_cfg.c **** 			{0x34u, 0x04u},
 303:.\Generated_Source\PSoC4/cyfitter_cfg.c **** 			{0x36u, 0x02u},
 304:.\Generated_Source\PSoC4/cyfitter_cfg.c **** 			{0x38u, 0xAAu},
 305:.\Generated_Source\PSoC4/cyfitter_cfg.c **** 			{0x3Eu, 0x55u},
 306:.\Generated_Source\PSoC4/cyfitter_cfg.c **** 			{0x58u, 0x04u},
 307:.\Generated_Source\PSoC4/cyfitter_cfg.c **** 			{0x5Bu, 0x04u},
 308:.\Generated_Source\PSoC4/cyfitter_cfg.c **** 			{0x5Fu, 0x01u},
 309:.\Generated_Source\PSoC4/cyfitter_cfg.c **** 			{0x05u, 0x40u},
 310:.\Generated_Source\PSoC4/cyfitter_cfg.c **** 			{0x07u, 0x20u},
 311:.\Generated_Source\PSoC4/cyfitter_cfg.c **** 			{0x0Du, 0x80u},
 312:.\Generated_Source\PSoC4/cyfitter_cfg.c **** 			{0x16u, 0x20u},
 313:.\Generated_Source\PSoC4/cyfitter_cfg.c **** 			{0x17u, 0x11u},
 314:.\Generated_Source\PSoC4/cyfitter_cfg.c **** 			{0x1Cu, 0x09u},
 315:.\Generated_Source\PSoC4/cyfitter_cfg.c **** 			{0x1Du, 0x01u},
 316:.\Generated_Source\PSoC4/cyfitter_cfg.c **** 			{0x1Fu, 0x08u},
 317:.\Generated_Source\PSoC4/cyfitter_cfg.c **** 			{0x6Cu, 0x08u},
 318:.\Generated_Source\PSoC4/cyfitter_cfg.c **** 			{0x6Du, 0x01u},
 319:.\Generated_Source\PSoC4/cyfitter_cfg.c **** 			{0x6Fu, 0x11u},
ARM GAS  C:\Users\leander\AppData\Local\Temp\ccGLkNf6.s 			page 12


 320:.\Generated_Source\PSoC4/cyfitter_cfg.c **** 			{0x75u, 0x50u},
 321:.\Generated_Source\PSoC4/cyfitter_cfg.c **** 			{0x76u, 0x80u},
 322:.\Generated_Source\PSoC4/cyfitter_cfg.c **** 			{0x77u, 0x20u},
 323:.\Generated_Source\PSoC4/cyfitter_cfg.c **** 			{0x84u, 0x04u},
 324:.\Generated_Source\PSoC4/cyfitter_cfg.c **** 			{0x86u, 0x80u},
 325:.\Generated_Source\PSoC4/cyfitter_cfg.c **** 			{0x89u, 0x01u},
 326:.\Generated_Source\PSoC4/cyfitter_cfg.c **** 			{0x8Bu, 0x08u},
 327:.\Generated_Source\PSoC4/cyfitter_cfg.c **** 			{0x8Cu, 0x01u},
 328:.\Generated_Source\PSoC4/cyfitter_cfg.c **** 			{0x8Du, 0x11u},
 329:.\Generated_Source\PSoC4/cyfitter_cfg.c **** 			{0x9Au, 0x20u},
 330:.\Generated_Source\PSoC4/cyfitter_cfg.c **** 			{0xA1u, 0x80u},
 331:.\Generated_Source\PSoC4/cyfitter_cfg.c **** 			{0xA4u, 0x08u},
 332:.\Generated_Source\PSoC4/cyfitter_cfg.c **** 			{0xA8u, 0x08u},
 333:.\Generated_Source\PSoC4/cyfitter_cfg.c **** 			{0xB1u, 0x80u},
 334:.\Generated_Source\PSoC4/cyfitter_cfg.c **** 			{0xC0u, 0xA0u},
 335:.\Generated_Source\PSoC4/cyfitter_cfg.c **** 			{0xC2u, 0x80u},
 336:.\Generated_Source\PSoC4/cyfitter_cfg.c **** 			{0xC4u, 0x70u},
 337:.\Generated_Source\PSoC4/cyfitter_cfg.c **** 			{0xE2u, 0x60u},
 338:.\Generated_Source\PSoC4/cyfitter_cfg.c **** 			{0xE6u, 0xD0u},
 339:.\Generated_Source\PSoC4/cyfitter_cfg.c **** 			{0x55u, 0x08u},
 340:.\Generated_Source\PSoC4/cyfitter_cfg.c **** 			{0x59u, 0x80u},
 341:.\Generated_Source\PSoC4/cyfitter_cfg.c **** 			{0x5Cu, 0x80u},
 342:.\Generated_Source\PSoC4/cyfitter_cfg.c **** 			{0x67u, 0x80u},
 343:.\Generated_Source\PSoC4/cyfitter_cfg.c **** 			{0xD4u, 0xC0u},
 344:.\Generated_Source\PSoC4/cyfitter_cfg.c **** 			{0xD6u, 0x20u},
 345:.\Generated_Source\PSoC4/cyfitter_cfg.c **** 			{0xD8u, 0x80u},
 346:.\Generated_Source\PSoC4/cyfitter_cfg.c **** 			{0x52u, 0x20u},
 347:.\Generated_Source\PSoC4/cyfitter_cfg.c **** 			{0x57u, 0x04u},
 348:.\Generated_Source\PSoC4/cyfitter_cfg.c **** 			{0x5Bu, 0x20u},
 349:.\Generated_Source\PSoC4/cyfitter_cfg.c **** 			{0x63u, 0x04u},
 350:.\Generated_Source\PSoC4/cyfitter_cfg.c **** 			{0x86u, 0x20u},
 351:.\Generated_Source\PSoC4/cyfitter_cfg.c **** 			{0x87u, 0x04u},
 352:.\Generated_Source\PSoC4/cyfitter_cfg.c **** 			{0x88u, 0x80u},
 353:.\Generated_Source\PSoC4/cyfitter_cfg.c **** 			{0x8Bu, 0x40u},
 354:.\Generated_Source\PSoC4/cyfitter_cfg.c **** 			{0x8Du, 0x80u},
 355:.\Generated_Source\PSoC4/cyfitter_cfg.c **** 			{0x8Fu, 0x24u},
 356:.\Generated_Source\PSoC4/cyfitter_cfg.c **** 			{0x97u, 0x80u},
 357:.\Generated_Source\PSoC4/cyfitter_cfg.c **** 			{0x9Cu, 0x80u},
 358:.\Generated_Source\PSoC4/cyfitter_cfg.c **** 			{0x9Du, 0x80u},
 359:.\Generated_Source\PSoC4/cyfitter_cfg.c **** 			{0xA9u, 0x08u},
 360:.\Generated_Source\PSoC4/cyfitter_cfg.c **** 			{0xD4u, 0xE0u},
 361:.\Generated_Source\PSoC4/cyfitter_cfg.c **** 			{0xD8u, 0x40u},
 362:.\Generated_Source\PSoC4/cyfitter_cfg.c **** 			{0xE2u, 0x40u},
 363:.\Generated_Source\PSoC4/cyfitter_cfg.c **** 			{0xE6u, 0x40u},
 364:.\Generated_Source\PSoC4/cyfitter_cfg.c **** 			{0xEAu, 0x80u},
 365:.\Generated_Source\PSoC4/cyfitter_cfg.c **** 			{0x19u, 0x01u},
 366:.\Generated_Source\PSoC4/cyfitter_cfg.c **** 			{0x1Eu, 0x80u},
 367:.\Generated_Source\PSoC4/cyfitter_cfg.c **** 			{0x8Du, 0x01u},
 368:.\Generated_Source\PSoC4/cyfitter_cfg.c **** 			{0xC6u, 0x0Cu},
 369:.\Generated_Source\PSoC4/cyfitter_cfg.c **** 			{0xE6u, 0x02u},
 370:.\Generated_Source\PSoC4/cyfitter_cfg.c **** 			{0xB2u, 0x40u},
 371:.\Generated_Source\PSoC4/cyfitter_cfg.c **** 			{0xEAu, 0x04u},
 372:.\Generated_Source\PSoC4/cyfitter_cfg.c **** 		};
 373:.\Generated_Source\PSoC4/cyfitter_cfg.c **** 
 374:.\Generated_Source\PSoC4/cyfitter_cfg.c **** 
 375:.\Generated_Source\PSoC4/cyfitter_cfg.c **** 
 376:.\Generated_Source\PSoC4/cyfitter_cfg.c **** 		CYPACKED typedef struct {
ARM GAS  C:\Users\leander\AppData\Local\Temp\ccGLkNf6.s 			page 13


 377:.\Generated_Source\PSoC4/cyfitter_cfg.c **** 			void CYFAR *address;
 378:.\Generated_Source\PSoC4/cyfitter_cfg.c **** 			uint16 size;
 379:.\Generated_Source\PSoC4/cyfitter_cfg.c **** 		} CYPACKED_ATTR cfg_memset_t;
 380:.\Generated_Source\PSoC4/cyfitter_cfg.c **** 
 381:.\Generated_Source\PSoC4/cyfitter_cfg.c **** 		static const cfg_memset_t CYCODE cfg_memset_list [] = {
 382:.\Generated_Source\PSoC4/cyfitter_cfg.c **** 			/* address, size */
 383:.\Generated_Source\PSoC4/cyfitter_cfg.c **** 			{(void CYFAR *)(CYDEV_UDB_P0_U0_BASE), 1024u},
 384:.\Generated_Source\PSoC4/cyfitter_cfg.c **** 			{(void CYFAR *)(CYDEV_UDB_DSI0_BASE), 1024u},
 385:.\Generated_Source\PSoC4/cyfitter_cfg.c **** 		};
 386:.\Generated_Source\PSoC4/cyfitter_cfg.c **** 
 387:.\Generated_Source\PSoC4/cyfitter_cfg.c **** 		uint8 CYDATA i;
 388:.\Generated_Source\PSoC4/cyfitter_cfg.c **** 
 389:.\Generated_Source\PSoC4/cyfitter_cfg.c **** 		/* Zero out critical memory blocks before beginning configuration */
 390:.\Generated_Source\PSoC4/cyfitter_cfg.c **** 		for (i = 0u; i < (sizeof(cfg_memset_list)/sizeof(cfg_memset_list[0])); i++)
 284              		.loc 1 390 0
 285 00ba 0024     		mov	r4, #0
 286 00bc 10E0     		b	.L14
 287              	.LVL21:
 288              	.L15:
 289              	.LBB4:
 391:.\Generated_Source\PSoC4/cyfitter_cfg.c **** 		{
 392:.\Generated_Source\PSoC4/cyfitter_cfg.c **** 			const cfg_memset_t CYCODE * CYDATA ms = &cfg_memset_list[i];
 393:.\Generated_Source\PSoC4/cyfitter_cfg.c **** 			CYMEMZERO(ms->address, (size_t)(uint32)(ms->size));
 290              		.loc 1 393 0 discriminator 3
 291 00be 2748     		ldr	r0, .L16+4
 292 00c0 6300     		lsl	r3, r4, #1
 293 00c2 1A19     		add	r2, r3, r4
 294 00c4 5200     		lsl	r2, r2, #1
 295 00c6 8218     		add	r2, r0, r2
 296 00c8 9188     		ldrh	r1, [r2, #4]
 297 00ca 1B19     		add	r3, r3, r4
 298 00cc 5B00     		lsl	r3, r3, #1
 299 00ce 1A5A     		ldrh	r2, [r3, r0]
 300 00d0 C318     		add	r3, r0, r3
 301 00d2 5888     		ldrh	r0, [r3, #2]
 302 00d4 0004     		lsl	r0, r0, #16
 303 00d6 1043     		orr	r0, r2
 304 00d8 FFF7FEFF 		bl	CYMEMZERO
 305              	.LVL22:
 306              	.LBE4:
 390:.\Generated_Source\PSoC4/cyfitter_cfg.c **** 		{
 307              		.loc 1 390 0 discriminator 3
 308 00dc 0134     		add	r4, r4, #1
 309              	.LVL23:
 310 00de E4B2     		uxtb	r4, r4
 311              	.LVL24:
 312              	.L14:
 390:.\Generated_Source\PSoC4/cyfitter_cfg.c **** 		{
 313              		.loc 1 390 0 is_stmt 0 discriminator 1
 314 00e0 012C     		cmp	r4, #1
 315 00e2 ECD9     		bls	.L15
 394:.\Generated_Source\PSoC4/cyfitter_cfg.c **** 		}
 395:.\Generated_Source\PSoC4/cyfitter_cfg.c **** 
 396:.\Generated_Source\PSoC4/cyfitter_cfg.c **** 		cfg_write_bytes32(cy_cfg_addr_table, cy_cfg_data_table);
 316              		.loc 1 396 0 is_stmt 1
 317 00e4 1D49     		ldr	r1, .L16+4
 318 00e6 081C     		mov	r0, r1
ARM GAS  C:\Users\leander\AppData\Local\Temp\ccGLkNf6.s 			page 14


 319 00e8 0C30     		add	r0, r0, #12
 320 00ea 2831     		add	r1, r1, #40
 321 00ec FFF7FEFF 		bl	cfg_write_bytes32
 322              	.LVL25:
 397:.\Generated_Source\PSoC4/cyfitter_cfg.c **** 
 398:.\Generated_Source\PSoC4/cyfitter_cfg.c **** 		/* HSIOM Starting address: CYDEV_HSIOM_BASE */
 399:.\Generated_Source\PSoC4/cyfitter_cfg.c **** 		CY_SET_XTND_REG32((void CYFAR *)(CYDEV_HSIOM_BASE), 0xEE033330u);
 323              		.loc 1 399 0
 324 00f0 1B4A     		ldr	r2, .L16+8
 325 00f2 1C4B     		ldr	r3, .L16+12
 326 00f4 1A60     		str	r2, [r3]
 400:.\Generated_Source\PSoC4/cyfitter_cfg.c **** 		CY_SET_XTND_REG32((void CYFAR *)(CYREG_HSIOM_PORT_SEL1), 0x00033330u);
 327              		.loc 1 400 0
 328 00f6 1C4A     		ldr	r2, .L16+16
 329 00f8 1C4B     		ldr	r3, .L16+20
 330 00fa 1A60     		str	r2, [r3]
 401:.\Generated_Source\PSoC4/cyfitter_cfg.c **** 
 402:.\Generated_Source\PSoC4/cyfitter_cfg.c **** 		/* UDB_PA_0 Starting address: CYDEV_UDB_PA0_BASE */
 403:.\Generated_Source\PSoC4/cyfitter_cfg.c **** 		CY_SET_XTND_REG32((void CYFAR *)(CYDEV_UDB_PA0_BASE), 0x00990000u);
 331              		.loc 1 403 0
 332 00fc 9923     		mov	r3, #153
 333 00fe 1B04     		lsl	r3, r3, #16
 334 0100 1B4A     		ldr	r2, .L16+24
 335 0102 1360     		str	r3, [r2]
 404:.\Generated_Source\PSoC4/cyfitter_cfg.c **** 		CY_SET_XTND_REG32((void CYFAR *)(CYREG_UDB_PA0_CFG8), 0x039C0000u);
 336              		.loc 1 404 0
 337 0104 E721     		mov	r1, #231
 338 0106 8904     		lsl	r1, r1, #18
 339 0108 1A4A     		ldr	r2, .L16+28
 340 010a 1160     		str	r1, [r2]
 405:.\Generated_Source\PSoC4/cyfitter_cfg.c **** 
 406:.\Generated_Source\PSoC4/cyfitter_cfg.c **** 		/* UDB_PA_1 Starting address: CYDEV_UDB_PA1_BASE */
 407:.\Generated_Source\PSoC4/cyfitter_cfg.c **** 		CY_SET_XTND_REG32((void CYFAR *)(CYDEV_UDB_PA1_BASE), 0x00990000u);
 341              		.loc 1 407 0
 342 010c 1A4A     		ldr	r2, .L16+32
 343 010e 1360     		str	r3, [r2]
 408:.\Generated_Source\PSoC4/cyfitter_cfg.c **** 		CY_SET_XTND_REG32((void CYFAR *)(CYREG_UDB_PA1_CFG8), 0x02900000u);
 344              		.loc 1 408 0
 345 0110 A422     		mov	r2, #164
 346 0112 9204     		lsl	r2, r2, #18
 347 0114 194B     		ldr	r3, .L16+36
 348 0116 1A60     		str	r2, [r3]
 409:.\Generated_Source\PSoC4/cyfitter_cfg.c **** 
 410:.\Generated_Source\PSoC4/cyfitter_cfg.c **** 		/* Enable digital routing */
 411:.\Generated_Source\PSoC4/cyfitter_cfg.c **** 		CY_SET_XTND_REG8((void *)CYREG_UDB_UDBIF_BANK_CTL, CY_GET_XTND_REG8((void *)CYREG_UDB_UDBIF_BANK_
 349              		.loc 1 411 0
 350 0118 194B     		ldr	r3, .L16+40
 351 011a 1978     		ldrb	r1, [r3]
 352 011c 0222     		mov	r2, #2
 353 011e 0A43     		orr	r2, r1
 354 0120 1A70     		strb	r2, [r3]
 412:.\Generated_Source\PSoC4/cyfitter_cfg.c **** 
 413:.\Generated_Source\PSoC4/cyfitter_cfg.c **** 		/* Enable UDB array */
 414:.\Generated_Source\PSoC4/cyfitter_cfg.c **** 		CY_SET_XTND_REG8((void *)CYREG_UDB_UDBIF_WAIT_CFG, (uint8)((CY_GET_XTND_REG8((void *)CYREG_UDB_UD
 355              		.loc 1 414 0
 356 0122 1848     		ldr	r0, .L16+44
 357 0124 0278     		ldrb	r2, [r0]
ARM GAS  C:\Users\leander\AppData\Local\Temp\ccGLkNf6.s 			page 15


 358 0126 3C21     		mov	r1, #60
 359 0128 8A43     		bic	r2, r1
 360 012a 2839     		sub	r1, r1, #40
 361 012c 0A43     		orr	r2, r1
 362 012e 0270     		strb	r2, [r0]
 415:.\Generated_Source\PSoC4/cyfitter_cfg.c **** 		CY_SET_XTND_REG8((void *)CYREG_UDB_UDBIF_BANK_CTL, (uint8)(CY_GET_XTND_REG8((void *)CYREG_UDB_UDB
 363              		.loc 1 415 0
 364 0130 1978     		ldrb	r1, [r3]
 365 0132 1622     		mov	r2, #22
 366 0134 0A43     		orr	r2, r1
 367 0136 1A70     		strb	r2, [r3]
 368              	.LBE3:
 416:.\Generated_Source\PSoC4/cyfitter_cfg.c **** 	}
 417:.\Generated_Source\PSoC4/cyfitter_cfg.c **** 
 418:.\Generated_Source\PSoC4/cyfitter_cfg.c **** 	/* Perform second pass device configuration. These items must be configured in specific order afte
 419:.\Generated_Source\PSoC4/cyfitter_cfg.c **** 	/* IOPINS0_0 Starting address: CYDEV_GPIO_PRT0_BASE */
 420:.\Generated_Source\PSoC4/cyfitter_cfg.c **** 	CY_SET_XTND_REG32((void CYFAR *)(CYDEV_GPIO_PRT0_BASE), 0x0000001Eu);
 369              		.loc 1 420 0
 370 0138 1E23     		mov	r3, #30
 371 013a 134A     		ldr	r2, .L16+48
 372 013c 1360     		str	r3, [r2]
 421:.\Generated_Source\PSoC4/cyfitter_cfg.c **** 	CY_SET_XTND_REG32((void CYFAR *)(CYREG_GPIO_PRT0_PC), 0x00D86DB0u);
 373              		.loc 1 421 0
 374 013e 1349     		ldr	r1, .L16+52
 375 0140 134A     		ldr	r2, .L16+56
 376 0142 1160     		str	r1, [r2]
 422:.\Generated_Source\PSoC4/cyfitter_cfg.c **** 
 423:.\Generated_Source\PSoC4/cyfitter_cfg.c **** 	/* IOPINS0_1 Starting address: CYDEV_GPIO_PRT1_BASE */
 424:.\Generated_Source\PSoC4/cyfitter_cfg.c **** 	CY_SET_XTND_REG32((void CYFAR *)(CYDEV_GPIO_PRT1_BASE), 0x0000001Eu);
 377              		.loc 1 424 0
 378 0144 134A     		ldr	r2, .L16+60
 379 0146 1360     		str	r3, [r2]
 425:.\Generated_Source\PSoC4/cyfitter_cfg.c **** 	CY_SET_XTND_REG32((void CYFAR *)(CYREG_GPIO_PRT1_PC), 0x00006DB0u);
 380              		.loc 1 425 0
 381 0148 134A     		ldr	r2, .L16+64
 382 014a 144B     		ldr	r3, .L16+68
 383 014c 1A60     		str	r2, [r3]
 426:.\Generated_Source\PSoC4/cyfitter_cfg.c **** 
 427:.\Generated_Source\PSoC4/cyfitter_cfg.c **** 	/* Setup clocks based on selections from Clock DWR */
 428:.\Generated_Source\PSoC4/cyfitter_cfg.c **** 	ClockSetup();
 384              		.loc 1 428 0
 385 014e FFF757FF 		bl	ClockSetup
 386              	.LVL26:
 429:.\Generated_Source\PSoC4/cyfitter_cfg.c **** 
 430:.\Generated_Source\PSoC4/cyfitter_cfg.c **** 	/* Perform basic analog initialization to defaults */
 431:.\Generated_Source\PSoC4/cyfitter_cfg.c **** 	AnalogSetDefault();
 387              		.loc 1 431 0
 388 0152 FFF7FEFF 		bl	AnalogSetDefault
 389              	.LVL27:
 432:.\Generated_Source\PSoC4/cyfitter_cfg.c **** 
 433:.\Generated_Source\PSoC4/cyfitter_cfg.c **** }
 390              		.loc 1 433 0
 391              		@ sp needed
 392              	.LVL28:
 393 0156 10BD     		pop	{r4, pc}
 394              	.L17:
 395              		.align	2
ARM GAS  C:\Users\leander\AppData\Local\Temp\ccGLkNf6.s 			page 16


 396              	.L16:
 397 0158 6CF02E40 		.word	1076818028
 398 015c 00000000 		.word	.LANCHOR0
 399 0160 303303EE 		.word	-301780176
 400 0164 00000240 		.word	1073872896
 401 0168 30330300 		.word	209712
 402 016c 00010240 		.word	1073873152
 403 0170 00500F40 		.word	1074745344
 404 0174 08500F40 		.word	1074745352
 405 0178 10500F40 		.word	1074745360
 406 017c 18500F40 		.word	1074745368
 407 0180 00700F40 		.word	1074753536
 408 0184 01700F40 		.word	1074753537
 409 0188 00000440 		.word	1074003968
 410 018c B06DD800 		.word	14183856
 411 0190 08000440 		.word	1074003976
 412 0194 00010440 		.word	1074004224
 413 0198 B06D0000 		.word	28080
 414 019c 08010440 		.word	1074004232
 415              		.cfi_endproc
 416              	.LFE8:
 417              		.size	cyfitter_cfg, .-cyfitter_cfg
 418              		.section	.rodata
 419              		.align	2
 420              		.set	.LANCHOR0,. + 0
 421              		.type	cfg_memset_list.4765, %object
 422              		.size	cfg_memset_list.4765, 12
 423              	cfg_memset_list.4765:
 424 0000 00300F40 		.word	1074737152
 425 0004 0004     		.short	1024
 426 0006 00400F40 		.4byte	1074741248
 427 000a 0004     		.short	1024
 428              		.type	cy_cfg_addr_table.4759, %object
 429              		.size	cy_cfg_addr_table.4759, 28
 430              	cy_cfg_addr_table.4759:
 431 000c 01310F40 		.word	1074737409
 432 0010 0F320F40 		.word	1074737679
 433 0014 1E330F40 		.word	1074737950
 434 0018 07400F40 		.word	1074741255
 435 001c 13410F40 		.word	1074741523
 436 0020 05420F40 		.word	1074741765
 437 0024 02430F40 		.word	1074742018
 438              		.type	cy_cfg_data_table.4760, %object
 439              		.size	cy_cfg_data_table.4760, 158
 440              	cy_cfg_data_table.4760:
 441 0028 8E       		.byte	-114
 442 0029 20       		.byte	32
 443 002a 06       		.byte	6
 444 002b 02       		.byte	2
 445 002c 0E       		.byte	14
 446 002d 04       		.byte	4
 447 002e 1C       		.byte	28
 448 002f 09       		.byte	9
 449 0030 22       		.byte	34
 450 0031 01       		.byte	1
 451 0032 24       		.byte	36
 452 0033 06       		.byte	6
ARM GAS  C:\Users\leander\AppData\Local\Temp\ccGLkNf6.s 			page 17


 453 0034 2A       		.byte	42
 454 0035 08       		.byte	8
 455 0036 30       		.byte	48
 456 0037 08       		.byte	8
 457 0038 32       		.byte	50
 458 0039 01       		.byte	1
 459 003a 34       		.byte	52
 460 003b 04       		.byte	4
 461 003c 36       		.byte	54
 462 003d 02       		.byte	2
 463 003e 38       		.byte	56
 464 003f AA       		.byte	-86
 465 0040 3E       		.byte	62
 466 0041 55       		.byte	85
 467 0042 58       		.byte	88
 468 0043 04       		.byte	4
 469 0044 5B       		.byte	91
 470 0045 04       		.byte	4
 471 0046 5F       		.byte	95
 472 0047 01       		.byte	1
 473 0048 05       		.byte	5
 474 0049 40       		.byte	64
 475 004a 07       		.byte	7
 476 004b 20       		.byte	32
 477 004c 0D       		.byte	13
 478 004d 80       		.byte	-128
 479 004e 16       		.byte	22
 480 004f 20       		.byte	32
 481 0050 17       		.byte	23
 482 0051 11       		.byte	17
 483 0052 1C       		.byte	28
 484 0053 09       		.byte	9
 485 0054 1D       		.byte	29
 486 0055 01       		.byte	1
 487 0056 1F       		.byte	31
 488 0057 08       		.byte	8
 489 0058 6C       		.byte	108
 490 0059 08       		.byte	8
 491 005a 6D       		.byte	109
 492 005b 01       		.byte	1
 493 005c 6F       		.byte	111
 494 005d 11       		.byte	17
 495 005e 75       		.byte	117
 496 005f 50       		.byte	80
 497 0060 76       		.byte	118
 498 0061 80       		.byte	-128
 499 0062 77       		.byte	119
 500 0063 20       		.byte	32
 501 0064 84       		.byte	-124
 502 0065 04       		.byte	4
 503 0066 86       		.byte	-122
 504 0067 80       		.byte	-128
 505 0068 89       		.byte	-119
 506 0069 01       		.byte	1
 507 006a 8B       		.byte	-117
 508 006b 08       		.byte	8
 509 006c 8C       		.byte	-116
ARM GAS  C:\Users\leander\AppData\Local\Temp\ccGLkNf6.s 			page 18


 510 006d 01       		.byte	1
 511 006e 8D       		.byte	-115
 512 006f 11       		.byte	17
 513 0070 9A       		.byte	-102
 514 0071 20       		.byte	32
 515 0072 A1       		.byte	-95
 516 0073 80       		.byte	-128
 517 0074 A4       		.byte	-92
 518 0075 08       		.byte	8
 519 0076 A8       		.byte	-88
 520 0077 08       		.byte	8
 521 0078 B1       		.byte	-79
 522 0079 80       		.byte	-128
 523 007a C0       		.byte	-64
 524 007b A0       		.byte	-96
 525 007c C2       		.byte	-62
 526 007d 80       		.byte	-128
 527 007e C4       		.byte	-60
 528 007f 70       		.byte	112
 529 0080 E2       		.byte	-30
 530 0081 60       		.byte	96
 531 0082 E6       		.byte	-26
 532 0083 D0       		.byte	-48
 533 0084 55       		.byte	85
 534 0085 08       		.byte	8
 535 0086 59       		.byte	89
 536 0087 80       		.byte	-128
 537 0088 5C       		.byte	92
 538 0089 80       		.byte	-128
 539 008a 67       		.byte	103
 540 008b 80       		.byte	-128
 541 008c D4       		.byte	-44
 542 008d C0       		.byte	-64
 543 008e D6       		.byte	-42
 544 008f 20       		.byte	32
 545 0090 D8       		.byte	-40
 546 0091 80       		.byte	-128
 547 0092 52       		.byte	82
 548 0093 20       		.byte	32
 549 0094 57       		.byte	87
 550 0095 04       		.byte	4
 551 0096 5B       		.byte	91
 552 0097 20       		.byte	32
 553 0098 63       		.byte	99
 554 0099 04       		.byte	4
 555 009a 86       		.byte	-122
 556 009b 20       		.byte	32
 557 009c 87       		.byte	-121
 558 009d 04       		.byte	4
 559 009e 88       		.byte	-120
 560 009f 80       		.byte	-128
 561 00a0 8B       		.byte	-117
 562 00a1 40       		.byte	64
 563 00a2 8D       		.byte	-115
 564 00a3 80       		.byte	-128
 565 00a4 8F       		.byte	-113
 566 00a5 24       		.byte	36
ARM GAS  C:\Users\leander\AppData\Local\Temp\ccGLkNf6.s 			page 19


 567 00a6 97       		.byte	-105
 568 00a7 80       		.byte	-128
 569 00a8 9C       		.byte	-100
 570 00a9 80       		.byte	-128
 571 00aa 9D       		.byte	-99
 572 00ab 80       		.byte	-128
 573 00ac A9       		.byte	-87
 574 00ad 08       		.byte	8
 575 00ae D4       		.byte	-44
 576 00af E0       		.byte	-32
 577 00b0 D8       		.byte	-40
 578 00b1 40       		.byte	64
 579 00b2 E2       		.byte	-30
 580 00b3 40       		.byte	64
 581 00b4 E6       		.byte	-26
 582 00b5 40       		.byte	64
 583 00b6 EA       		.byte	-22
 584 00b7 80       		.byte	-128
 585 00b8 19       		.byte	25
 586 00b9 01       		.byte	1
 587 00ba 1E       		.byte	30
 588 00bb 80       		.byte	-128
 589 00bc 8D       		.byte	-115
 590 00bd 01       		.byte	1
 591 00be C6       		.byte	-58
 592 00bf 0C       		.byte	12
 593 00c0 E6       		.byte	-26
 594 00c1 02       		.byte	2
 595 00c2 B2       		.byte	-78
 596 00c3 40       		.byte	64
 597 00c4 EA       		.byte	-22
 598 00c5 04       		.byte	4
 599 00c6 0000     		.text
 600              	.Letext0:
 601              		.file 2 "c:\\program files (x86)\\cypress\\psoc creator\\3.3\\psoc creator\\import\\gnu\\arm\\4.9.
 602              		.file 3 ".\\Generated_Source\\PSoC4\\cytypes.h"
 603              		.file 4 ".\\Generated_Source\\PSoC4\\CyLFClk.h"
 604              		.file 5 ".\\Generated_Source\\PSoC4\\CyLib.h"